; ModuleID = '33/214.c'
source_filename = "33/214.c"
target datalayout = "e-m:e-p270:32:32-p271:32:32-p272:64:64-i64:64-f80:128-n8:16:32:64-S128"
target triple = "x86_64-pc-linux-gnu"

@.str = private unnamed_addr constant [3 x i8] c"%d\00", align 1
@.str.1 = private unnamed_addr constant [3 x i8] c"%s\00", align 1
@.str.2 = private unnamed_addr constant [4 x i8] c"%s\0A\00", align 1

; Function Attrs: noinline nounwind uwtable
define dso_local i32 @main() #0 {
  %1 = alloca i32, align 4
  %2 = alloca i32, align 4
  %3 = alloca i32, align 4
  %4 = alloca i32, align 4
  %5 = alloca i32, align 4
  %6 = alloca i32, align 4
  %7 = alloca i32, align 4
  %8 = alloca [1000 x [256 x i8]], align 16
  %9 = alloca [1000 x [256 x i8]], align 16
  store i32 0, i32* %1, align 4
  %10 = call i32 (i8*, ...) @__isoc99_scanf(i8* getelementptr inbounds ([3 x i8], [3 x i8]* @.str, i64 0, i64 0), i32* %7)
  store i32 0, i32* %2, align 4
  br label %11

11:                                               ; preds = %110, %0
  %12 = load i32, i32* %2, align 4
  %13 = load i32, i32* %7, align 4
  %14 = icmp slt i32 %12, %13
  br i1 %14, label %15, label %113

15:                                               ; preds = %11
  %16 = load i32, i32* %2, align 4
  %17 = sext i32 %16 to i64
  %18 = getelementptr inbounds [1000 x [256 x i8]], [1000 x [256 x i8]]* %8, i64 0, i64 %17
  %19 = getelementptr inbounds [256 x i8], [256 x i8]* %18, i64 0, i64 0
  %20 = call i32 (i8*, ...) @__isoc99_scanf(i8* getelementptr inbounds ([3 x i8], [3 x i8]* @.str.1, i64 0, i64 0), i8* %19)
  %21 = load i32, i32* %2, align 4
  %22 = sext i32 %21 to i64
  %23 = getelementptr inbounds [1000 x [256 x i8]], [1000 x [256 x i8]]* %8, i64 0, i64 %22
  %24 = getelementptr inbounds [256 x i8], [256 x i8]* %23, i64 0, i64 0
  %25 = call i64 @strlen(i8* %24) #3
  %26 = trunc i64 %25 to i32
  store i32 %26, i32* %5, align 4
  store i32 0, i32* %3, align 4
  br label %27

27:                                               ; preds = %100, %15
  %28 = load i32, i32* %3, align 4
  %29 = load i32, i32* %5, align 4
  %30 = icmp slt i32 %28, %29
  br i1 %30, label %31, label %103

31:                                               ; preds = %27
  %32 = load i32, i32* %2, align 4
  %33 = sext i32 %32 to i64
  %34 = getelementptr inbounds [1000 x [256 x i8]], [1000 x [256 x i8]]* %8, i64 0, i64 %33
  %35 = load i32, i32* %3, align 4
  %36 = sext i32 %35 to i64
  %37 = getelementptr inbounds [256 x i8], [256 x i8]* %34, i64 0, i64 %36
  %38 = load i8, i8* %37, align 1
  %39 = sext i8 %38 to i32
  %40 = icmp eq i32 %39, 71
  br i1 %40, label %41, label %48

41:                                               ; preds = %31
  %42 = load i32, i32* %2, align 4
  %43 = sext i32 %42 to i64
  %44 = getelementptr inbounds [1000 x [256 x i8]], [1000 x [256 x i8]]* %9, i64 0, i64 %43
  %45 = load i32, i32* %3, align 4
  %46 = sext i32 %45 to i64
  %47 = getelementptr inbounds [256 x i8], [256 x i8]* %44, i64 0, i64 %46
  store i8 67, i8* %47, align 1
  br label %48

48:                                               ; preds = %41, %31
  %49 = load i32, i32* %2, align 4
  %50 = sext i32 %49 to i64
  %51 = getelementptr inbounds [1000 x [256 x i8]], [1000 x [256 x i8]]* %8, i64 0, i64 %50
  %52 = load i32, i32* %3, align 4
  %53 = sext i32 %52 to i64
  %54 = getelementptr inbounds [256 x i8], [256 x i8]* %51, i64 0, i64 %53
  %55 = load i8, i8* %54, align 1
  %56 = sext i8 %55 to i32
  %57 = icmp eq i32 %56, 67
  br i1 %57, label %58, label %65

58:                                               ; preds = %48
  %59 = load i32, i32* %2, align 4
  %60 = sext i32 %59 to i64
  %61 = getelementptr inbounds [1000 x [256 x i8]], [1000 x [256 x i8]]* %9, i64 0, i64 %60
  %62 = load i32, i32* %3, align 4
  %63 = sext i32 %62 to i64
  %64 = getelementptr inbounds [256 x i8], [256 x i8]* %61, i64 0, i64 %63
  store i8 71, i8* %64, align 1
  br label %65

65:                                               ; preds = %58, %48
  %66 = load i32, i32* %2, align 4
  %67 = sext i32 %66 to i64
  %68 = getelementptr inbounds [1000 x [256 x i8]], [1000 x [256 x i8]]* %8, i64 0, i64 %67
  %69 = load i32, i32* %3, align 4
  %70 = sext i32 %69 to i64
  %71 = getelementptr inbounds [256 x i8], [256 x i8]* %68, i64 0, i64 %70
  %72 = load i8, i8* %71, align 1
  %73 = sext i8 %72 to i32
  %74 = icmp eq i32 %73, 65
  br i1 %74, label %75, label %82

75:                                               ; preds = %65
  %76 = load i32, i32* %2, align 4
  %77 = sext i32 %76 to i64
  %78 = getelementptr inbounds [1000 x [256 x i8]], [1000 x [256 x i8]]* %9, i64 0, i64 %77
  %79 = load i32, i32* %3, align 4
  %80 = sext i32 %79 to i64
  %81 = getelementptr inbounds [256 x i8], [256 x i8]* %78, i64 0, i64 %80
  store i8 84, i8* %81, align 1
  br label %82

82:                                               ; preds = %75, %65
  %83 = load i32, i32* %2, align 4
  %84 = sext i32 %83 to i64
  %85 = getelementptr inbounds [1000 x [256 x i8]], [1000 x [256 x i8]]* %8, i64 0, i64 %84
  %86 = load i32, i32* %3, align 4
  %87 = sext i32 %86 to i64
  %88 = getelementptr inbounds [256 x i8], [256 x i8]* %85, i64 0, i64 %87
  %89 = load i8, i8* %88, align 1
  %90 = sext i8 %89 to i32
  %91 = icmp eq i32 %90, 84
  br i1 %91, label %92, label %99

92:                                               ; preds = %82
  %93 = load i32, i32* %2, align 4
  %94 = sext i32 %93 to i64
  %95 = getelementptr inbounds [1000 x [256 x i8]], [1000 x [256 x i8]]* %9, i64 0, i64 %94
  %96 = load i32, i32* %3, align 4
  %97 = sext i32 %96 to i64
  %98 = getelementptr inbounds [256 x i8], [256 x i8]* %95, i64 0, i64 %97
  store i8 65, i8* %98, align 1
  br label %99

99:                                               ; preds = %92, %82
  br label %100

100:                                              ; preds = %99
  %101 = load i32, i32* %3, align 4
  %102 = add nsw i32 %101, 1
  store i32 %102, i32* %3, align 4
  br label %27

103:                                              ; preds = %27
  %104 = load i32, i32* %2, align 4
  %105 = sext i32 %104 to i64
  %106 = getelementptr inbounds [1000 x [256 x i8]], [1000 x [256 x i8]]* %9, i64 0, i64 %105
  %107 = load i32, i32* %5, align 4
  %108 = sext i32 %107 to i64
  %109 = getelementptr inbounds [256 x i8], [256 x i8]* %106, i64 0, i64 %108
  store i8 0, i8* %109, align 1
  br label %110

110:                                              ; preds = %103
  %111 = load i32, i32* %2, align 4
  %112 = add nsw i32 %111, 1
  store i32 %112, i32* %2, align 4
  br label %11

113:                                              ; preds = %11
  store i32 0, i32* %2, align 4
  br label %114

114:                                              ; preds = %124, %113
  %115 = load i32, i32* %2, align 4
  %116 = load i32, i32* %7, align 4
  %117 = icmp slt i32 %115, %116
  br i1 %117, label %118, label %127

118:                                              ; preds = %114
  %119 = load i32, i32* %2, align 4
  %120 = sext i32 %119 to i64
  %121 = getelementptr inbounds [1000 x [256 x i8]], [1000 x [256 x i8]]* %9, i64 0, i64 %120
  %122 = getelementptr inbounds [256 x i8], [256 x i8]* %121, i64 0, i64 0
  %123 = call i32 (i8*, ...) @printf(i8* getelementptr inbounds ([4 x i8], [4 x i8]* @.str.2, i64 0, i64 0), i8* %122)
  br label %124

124:                                              ; preds = %118
  %125 = load i32, i32* %2, align 4
  %126 = add nsw i32 %125, 1
  store i32 %126, i32* %2, align 4
  br label %114

127:                                              ; preds = %114
  ret i32 0
}

declare dso_local i32 @__isoc99_scanf(i8*, ...) #1

; Function Attrs: nounwind readonly
declare dso_local i64 @strlen(i8*) #2

declare dso_local i32 @printf(i8*, ...) #1


!llvm.module.flags = !{!0}
!llvm.ident = !{!1}

!0 = !{i32 1, !"wchar_size", i32 4}
!1 = !{!"clang version 10.0.0-4ubuntu1 "}
